; Function Attrs: nounwind uwtable
define dso_local void @ExecDropSingleTupleTableSlot(ptr noundef %0) local_unnamed_addr #1 {
  %2 = getelementptr inbounds nuw i8, ptr %0, i64 8
  %3 = load ptr, ptr %2, align 8
  %4 = getelementptr inbounds nuw i8, ptr %3, i64 24
  %5 = load ptr, ptr %4, align 8
  tail call void %5(ptr noundef %0) #14
  %6 = load ptr, ptr %2, align 8
  %7 = getelementptr inbounds nuw i8, ptr %6, i64 16
  %8 = load ptr, ptr %7, align 8
  tail call void %8(ptr noundef %0) #14
  %9 = getelementptr inbounds nuw i8, ptr %0, i64 16
  %10 = load ptr, ptr %9, align 8
  %.not = icmp eq ptr %10, null
  br i1 %.not, label %16, label %11

11:                                               ; preds = %1
  %12 = getelementptr inbounds nuw i8, ptr %10, i64 12
  %13 = load i32, ptr %12, align 4
  %14 = icmp sgt i32 %13, -1
  br i1 %14, label %15, label %16

15:                                               ; preds = %11
  tail call void @DecrTupleDescRefCount(ptr noundef nonnull %10) #14
  br label %16

16:                                               ; preds = %15, %11, %1
  %17 = getelementptr inbounds nuw i8, ptr %0, i64 4
  %18 = load i16, ptr %17, align 4
  %19 = and i16 %18, 16
  %.not14 = icmp eq i16 %19, 0
  br i1 %.not14, label %20, label %28

20:                                               ; preds = %16
  %21 = getelementptr inbounds nuw i8, ptr %0, i64 24
  %22 = load ptr, ptr %21, align 8
  %.not15 = icmp eq ptr %22, null
  br i1 %.not15, label %24, label %23

23:                                               ; preds = %20
  tail call void @pfree(ptr noundef nonnull %22) #14
  br label %24

24:                                               ; preds = %23, %20
  %25 = getelementptr inbounds nuw i8, ptr %0, i64 32
  %26 = load ptr, ptr %25, align 8
  %.not16 = icmp eq ptr %26, null
  br i1 %.not16, label %28, label %27

27:                                               ; preds = %24
  tail call void @pfree(ptr noundef nonnull %26) #14
  br label %28

28:                                               ; preds = %24, %27, %16
  tail call void @pfree(ptr noundef nonnull %0) #14
  ret void
}